; Function Attrs: mustprogress nofree norecurse nosync nounwind willreturn memory(read, inaccessiblemem: none) uwtable
define dso_local noundef i32 @_ZNK3net18ReliableQuicStream7versionEv(ptr nocapture noundef nonnull readonly align 8 dereferenceable(377) %this) local_unnamed_addr #8 align 2 {
entry:
  %session_ = getelementptr inbounds i8, ptr %this, i64 224
  %0 = load ptr, ptr %session_, align 8
  %connection_.i = getelementptr inbounds i8, ptr %0, i64 56
  %1 = load ptr, ptr %connection_.i, align 8
  %quic_version_.i.i = getelementptr inbounds i8, ptr %1, i64 300
  %2 = load i32, ptr %quic_version_.i.i, align 4
  ret i32 %2
}